	.attribute	4, 16
	.attribute	5, "rv64i2p1_m2p0_a2p1_f2p2_d2p2_zicsr2p0_zifencei2p0_zmmul1p0_zaamo1p0_zalrsc1p0"
	.file	"fact.c"
	.text
	.globl	factorial                       # -- Begin function factorial
	.p2align	2
	.type	factorial,@function
factorial:                              # @factorial
.Lfunc_begin0:
	.file	0 "/Users/Shared/ccc/c0computer/compiler/ll0/ll0c" "fact.c" md5 0xd4da699c43546eed15c07109094650e0
	.loc	0 1 0                           # fact.c:1:0
	.cfi_sections .debug_frame
	.cfi_startproc
# %bb.0:
	addi	sp, sp, -32
	.cfi_def_cfa_offset 32
	sd	ra, 24(sp)                      # 8-byte Folded Spill
	sd	s0, 16(sp)                      # 8-byte Folded Spill
	.cfi_offset ra, -8
	.cfi_offset s0, -16
	addi	s0, sp, 32
	.cfi_def_cfa s0, 0
                                        # kill: def $x11 killed $x10
	sw	a0, -24(s0)
.Ltmp0:
	.loc	0 2 9 prologue_end              # fact.c:2:9
	lw	a0, -24(s0)
	.loc	0 2 10 is_stmt 0                # fact.c:2:10
	bnez	a0, .LBB0_2
	j	.LBB0_1
.LBB0_1:
	.loc	0 0 10                          # fact.c:0:10
	li	a0, 1
	.loc	0 2 15                          # fact.c:2:15
	sw	a0, -20(s0)
	j	.LBB0_3
.Ltmp1:
.LBB0_2:
	.loc	0 3 12 is_stmt 1                # fact.c:3:12
	lw	a0, -24(s0)
	sd	a0, -32(s0)                     # 8-byte Folded Spill
	.loc	0 3 25 is_stmt 0                # fact.c:3:25
	addiw	a0, a0, -1
	.loc	0 3 14                          # fact.c:3:14
	call	factorial
	mv	a1, a0
	ld	a0, -32(s0)                     # 8-byte Folded Reload
	.loc	0 3 13                          # fact.c:3:13
	mulw	a0, a0, a1
	.loc	0 3 5                           # fact.c:3:5
	sw	a0, -20(s0)
	j	.LBB0_3
.LBB0_3:
	.loc	0 4 1 is_stmt 1                 # fact.c:4:1
	lw	a0, -20(s0)
	.cfi_def_cfa sp, 32
	.loc	0 4 1 epilogue_begin is_stmt 0  # fact.c:4:1
	ld	ra, 24(sp)                      # 8-byte Folded Reload
	ld	s0, 16(sp)                      # 8-byte Folded Reload
	.cfi_restore ra
	.cfi_restore s0
	addi	sp, sp, 32
	.cfi_def_cfa_offset 0
	ret
.Ltmp2:
.Lfunc_end0:
	.size	factorial, .Lfunc_end0-factorial
	.cfi_endproc
                                        # -- End function
	.globl	main                            # -- Begin function main
	.p2align	2
	.type	main,@function
main:                                   # @main
.Lfunc_begin1:
	.loc	0 6 0 is_stmt 1                 # fact.c:6:0
	.cfi_startproc
# %bb.0:
	addi	sp, sp, -32
	.cfi_def_cfa_offset 32
	sd	ra, 24(sp)                      # 8-byte Folded Spill
	sd	s0, 16(sp)                      # 8-byte Folded Spill
	.cfi_offset ra, -8
	.cfi_offset s0, -16
	addi	s0, sp, 32
	.cfi_def_cfa s0, 0
	li	a0, 0
	sw	a0, -20(s0)
	li	a0, 5
.Ltmp3:
	.loc	0 7 12 prologue_end             # fact.c:7:12
	call	factorial
	.cfi_def_cfa sp, 32
	.loc	0 7 5 epilogue_begin is_stmt 0  # fact.c:7:5
	ld	ra, 24(sp)                      # 8-byte Folded Reload
	ld	s0, 16(sp)                      # 8-byte Folded Reload
	.cfi_restore ra
	.cfi_restore s0
	addi	sp, sp, 32
	.cfi_def_cfa_offset 0
	ret
.Ltmp4:
.Lfunc_end1:
	.size	main, .Lfunc_end1-main
	.cfi_endproc
                                        # -- End function
	.section	".note.GNU-stack","",@progbits
	.addrsig
	.addrsig_sym factorial